; Function Attrs: mustprogress nofree norecurse nosync nounwind memory(read, argmem: readwrite, inaccessiblemem: none) uwtable
define hidden void @_ZN4cvc58internal6theory5arith6linear14ArithVariables12var_iterator15nextInitializedEv(ptr nocapture noundef nonnull align 8 dereferenceable(16) %this) local_unnamed_addr #9 align 2 {
entry:
  %0 = load ptr, ptr %this, align 8
  %_M_finish.i.i = getelementptr inbounds i8, ptr %0, i64 8
  %1 = load ptr, ptr %_M_finish.i.i, align 8
  %d_wrapped = getelementptr inbounds i8, ptr %this, i64 8
  %d_wrapped.promoted = load ptr, ptr %d_wrapped, align 8
  %cmp.i.not3 = icmp eq ptr %d_wrapped.promoted, %1
  br i1 %cmp.i.not3, label %while.end, label %land.rhs.lr.ph

land.rhs.lr.ph:                                   ; preds = %entry
  %d_image.i = getelementptr inbounds i8, ptr %0, i64 48
  %2 = load i32, ptr @_ZN4cvc58internal6theory5arith6linear17ARITHVAR_SENTINELE, align 4
  br label %land.rhs

land.rhs:                                         ; preds = %land.rhs.lr.ph, %while.body
  %incdec.ptr.i24 = phi ptr [ %d_wrapped.promoted, %land.rhs.lr.ph ], [ %incdec.ptr.i, %while.body ]
  %3 = load i32, ptr %incdec.ptr.i24, align 4
  %conv.i = zext i32 %3 to i64
  %4 = load ptr, ptr %d_image.i, align 8
  %add.ptr.i.i = getelementptr inbounds %"class.cvc5::internal::theory::arith::linear::ArithVariables::VarInfo", ptr %4, i64 %conv.i
  %5 = load i32, ptr %add.ptr.i.i, align 8
  %cmp.i1.not = icmp eq i32 %5, %2
  br i1 %cmp.i1.not, label %while.body, label %while.end

while.body:                                       ; preds = %land.rhs
  %incdec.ptr.i = getelementptr inbounds i8, ptr %incdec.ptr.i24, i64 4
  store ptr %incdec.ptr.i, ptr %d_wrapped, align 8
  %cmp.i.not = icmp eq ptr %incdec.ptr.i, %1
  br i1 %cmp.i.not, label %while.end, label %land.rhs, !llvm.loop !13

while.end:                                        ; preds = %land.rhs, %while.body, %entry
  ret void
}